target datalayout = "e-m:e-p270:32:32-p271:32:32-p272:64:64-i64:64-i128:128-f80:128-n8:16:32:64-S128"
target triple = "x86_64-pc-linux-gnu"

%struct.RelationData = type { %struct.RelFileLocator, ptr, i32, i32, i8, i8, i8, i8, i8, i32, i32, i32, i32, ptr, ptr, i32, %struct.LockInfoData, ptr, ptr, ptr, ptr, ptr, i8, ptr, ptr, ptr, ptr, ptr, ptr, i32, ptr, i8, ptr, ptr, i32, i8, i32, ptr, i8, ptr, ptr, ptr, ptr, ptr, ptr, ptr, i32, ptr, ptr, ptr, ptr, ptr, ptr, ptr, ptr, ptr, ptr, ptr, ptr, ptr, ptr, ptr, ptr, ptr, ptr, ptr, i32, i8, ptr }
%struct.RelFileLocator = type { i32, i32, i32 }
%struct.LockInfoData = type { %struct.LockRelId }
%struct.LockRelId = type { i32, i32 }
%struct.FormData_pg_class = type { i32, %struct.nameData, i32, i32, i32, i32, i32, i32, i32, i32, float, i32, i32, i8, i8, i8, i8, i16, i16, i8, i8, i8, i8, i8, i8, i8, i8, i32, i32, i32 }
%struct.nameData = type { [64 x i8] }
%struct.PgStat_TableStatus = type { i32, i8, ptr, %struct.PgStat_TableCounts, ptr }
%struct.PgStat_TableCounts = type { i64, i64, i64, i64, i64, i64, i64, i64, i8, i64, i64, i64, i64, i64 }

@pgstat_track_counts = external global i8, align 1

; Function Attrs: nounwind uwtable
define dso_local void @pgstat_unlink_relation(ptr noundef %0) #0 {
  %2 = alloca ptr, align 8
  store ptr %0, ptr %2, align 8
  %3 = load ptr, ptr %2, align 8
  %4 = getelementptr inbounds nuw %struct.RelationData, ptr %3, i32 0, i32 68
  %5 = load ptr, ptr %4, align 8
  %6 = icmp eq ptr %5, null
  br i1 %6, label %7, label %8

7:                                                ; preds = %1
  br label %15

8:                                                ; preds = %1
  %9 = load ptr, ptr %2, align 8
  %10 = getelementptr inbounds nuw %struct.RelationData, ptr %9, i32 0, i32 68
  %11 = load ptr, ptr %10, align 8
  %12 = getelementptr inbounds nuw %struct.PgStat_TableStatus, ptr %11, i32 0, i32 4
  store ptr null, ptr %12, align 8
  %13 = load ptr, ptr %2, align 8
  %14 = getelementptr inbounds nuw %struct.RelationData, ptr %13, i32 0, i32 68
  store ptr null, ptr %14, align 8
  br label %15

15:                                               ; preds = %8, %7
  ret void
}

; Function Attrs: nounwind uwtable
define dso_local void @pgstat_init_relation(ptr noundef %0) #0 {
  %2 = alloca ptr, align 8
  %3 = alloca i8, align 1
  %4 = alloca i32, align 4
  store ptr %0, ptr %2, align 8
  call void @llvm.lifetime.start.p0(i64 1, ptr %3) #6
  %5 = load ptr, ptr %2, align 8
  %6 = getelementptr inbounds nuw %struct.RelationData, ptr %5, i32 0, i32 13
  %7 = load ptr, ptr %6, align 8
  %8 = getelementptr inbounds nuw %struct.FormData_pg_class, ptr %7, i32 0, i32 16
  %9 = load i8, ptr %8, align 1
  store i8 %9, ptr %3, align 1
  %10 = load i8, ptr %3, align 1
  %11 = sext i8 %10 to i32
  %12 = icmp eq i32 %11, 114
  br i1 %12, label %38, label %13

13:                                               ; preds = %1
  %14 = load i8, ptr %3, align 1
  %15 = sext i8 %14 to i32
  %16 = icmp eq i32 %15, 105
  br i1 %16, label %38, label %17

17:                                               ; preds = %13
  %18 = load i8, ptr %3, align 1
  %19 = sext i8 %18 to i32
  %20 = icmp eq i32 %19, 83
  br i1 %20, label %38, label %21

21:                                               ; preds = %17
  %22 = load i8, ptr %3, align 1
  %23 = sext i8 %22 to i32
  %24 = icmp eq i32 %23, 116
  br i1 %24, label %38, label %25

25:                                               ; preds = %21
  %26 = load i8, ptr %3, align 1
  %27 = sext i8 %26 to i32
  %28 = icmp eq i32 %27, 109
  br i1 %28, label %38, label %29

29:                                               ; preds = %25
  %30 = load i8, ptr %3, align 1
  %31 = sext i8 %30 to i32
  %32 = icmp ne i32 %31, 112
  br i1 %32, label %33, label %38

33:                                               ; preds = %29
  %34 = load ptr, ptr %2, align 8
  %35 = getelementptr inbounds nuw %struct.RelationData, ptr %34, i32 0, i32 67
  store i8 0, ptr %35, align 4
  %36 = load ptr, ptr %2, align 8
  %37 = getelementptr inbounds nuw %struct.RelationData, ptr %36, i32 0, i32 68
  store ptr null, ptr %37, align 8
  store i32 1, ptr %4, align 4
  br label %56

38:                                               ; preds = %29, %25, %21, %17, %13, %1
  %39 = load i8, ptr @pgstat_track_counts, align 1, !range !4, !noundef !5
  %40 = trunc i8 %39 to i1
  br i1 %40, label %53, label %41

41:                                               ; preds = %38
  %42 = load ptr, ptr %2, align 8
  %43 = getelementptr inbounds nuw %struct.RelationData, ptr %42, i32 0, i32 68
  %44 = load ptr, ptr %43, align 8
  %45 = icmp ne ptr %44, null
  br i1 %45, label %46, label %48

46:                                               ; preds = %41
  %47 = load ptr, ptr %2, align 8
  call void @pgstat_unlink_relation(ptr noundef %47)
  br label %48

48:                                               ; preds = %46, %41
  %49 = load ptr, ptr %2, align 8
  %50 = getelementptr inbounds nuw %struct.RelationData, ptr %49, i32 0, i32 67
  store i8 0, ptr %50, align 4
  %51 = load ptr, ptr %2, align 8
  %52 = getelementptr inbounds nuw %struct.RelationData, ptr %51, i32 0, i32 68
  store ptr null, ptr %52, align 8
  store i32 1, ptr %4, align 4
  br label %56

53:                                               ; preds = %38
  %54 = load ptr, ptr %2, align 8
  %55 = getelementptr inbounds nuw %struct.RelationData, ptr %54, i32 0, i32 67
  store i8 1, ptr %55, align 4
  store i32 0, ptr %4, align 4
  br label %56

56:                                               ; preds = %53, %48, %33
  call void @llvm.lifetime.end.p0(i64 1, ptr %3) #6
  %57 = load i32, ptr %4, align 4
  switch i32 %57, label %59 [
    i32 0, label %58
    i32 1, label %58
  ]

58:                                               ; preds = %56, %56
  ret void

59:                                               ; preds = %56
  unreachable
}