; Function Attrs: mustprogress nofree norecurse nosync nounwind willreturn memory(readwrite, inaccessiblemem: none) uwtable
define dso_local void @pgstat_init_relation(ptr noundef captures(none) initializes((476, 477)) %0) local_unnamed_addr #4 {
  %2 = getelementptr inbounds nuw i8, ptr %0, i64 56
  %3 = load ptr, ptr %2, align 8
  %4 = getelementptr inbounds nuw i8, ptr %3, i64 115
  %5 = load i8, ptr %4, align 1
  switch i8 %5, label %6 [
    i8 116, label %9
    i8 114, label %9
    i8 112, label %9
    i8 109, label %9
    i8 105, label %9
    i8 83, label %9
  ]

6:                                                ; preds = %1
  %7 = getelementptr inbounds nuw i8, ptr %0, i64 476
  store i8 0, ptr %7, align 4
  %8 = getelementptr inbounds nuw i8, ptr %0, i64 480
  store ptr null, ptr %8, align 8
  br label %20

9:                                                ; preds = %1, %1, %1, %1, %1, %1
  %10 = load i8, ptr @pgstat_track_counts, align 1, !range !4, !noundef !5
  %11 = trunc nuw i8 %10 to i1
  br i1 %11, label %18, label %12

12:                                               ; preds = %9
  %13 = getelementptr inbounds nuw i8, ptr %0, i64 480
  %14 = load ptr, ptr %13, align 8
  %.not = icmp eq ptr %14, null
  br i1 %.not, label %16, label %pgstat_unlink_relation.exit

pgstat_unlink_relation.exit:                      ; preds = %12
  %15 = getelementptr inbounds nuw i8, ptr %14, i64 128
  store ptr null, ptr %15, align 8
  br label %16

16:                                               ; preds = %pgstat_unlink_relation.exit, %12
  %17 = getelementptr inbounds nuw i8, ptr %0, i64 476
  store i8 0, ptr %17, align 4
  store ptr null, ptr %13, align 8
  br label %20

18:                                               ; preds = %9
  %19 = getelementptr inbounds nuw i8, ptr %0, i64 476
  store i8 1, ptr %19, align 4
  br label %20

20:                                               ; preds = %18, %16, %6
  ret void
}